target datalayout = "e-m:e-p270:32:32-p271:32:32-p272:64:64-i64:64-i128:128-f80:128-n8:16:32:64-S128"
target triple = "x86_64-pc-linux-gnu"

%struct._lv_global_t = type { i8, i8, %struct.lv_ll_t, ptr, ptr, %struct.lv_ll_t, i8, i32, i32, ptr, %struct.lv_ll_t, ptr, %struct.lv_ll_t, ptr, ptr, i32, ptr, i8, i32, i32, ptr, i32, %struct.lv_timer_state_t, %struct.lv_anim_state_t, %struct.lv_tick_state_t, %struct._lv_draw_buf_handlers_t, %struct._lv_draw_buf_handlers_t, %struct._lv_draw_buf_handlers_t, %struct.lv_ll_t, ptr, ptr, %struct.lv_draw_global_info_t, [4 x %struct.lv_draw_sw_mask_radius_circle_dsc_t], ptr, ptr, ptr, %struct.lv_tlsf_state_t, %struct.lv_ll_t, ptr, ptr, %struct.lv_style_t, i64, ptr, i32, ptr }
%struct.lv_timer_state_t = type { %struct.lv_ll_t, i8, i8, i8, i8, i32, i8, i32, i32, i32, i32, ptr, ptr }
%struct.lv_anim_state_t = type { i8, i8, ptr, %struct.lv_ll_t }
%struct.lv_tick_state_t = type { i32, i8, ptr, ptr }
%struct._lv_draw_buf_handlers_t = type { ptr, ptr, ptr, ptr, ptr, ptr }
%struct.lv_draw_global_info_t = type { ptr, i32, i32, i32, i32, i8 }
%struct.lv_draw_sw_mask_radius_circle_dsc_t = type { ptr, ptr, ptr, ptr, i32, i32, i32 }
%struct.lv_tlsf_state_t = type { ptr, i64, i64, %struct.lv_ll_t }
%struct.lv_ll_t = type { i32, ptr, ptr }
%struct.lv_style_t = type { ptr, i32, i8 }

@lv_global = external global %struct._lv_global_t, align 8

; Function Attrs: nounwind uwtable
define ptr @lv_malloc_core(i64 noundef %0) #0 {
  %2 = alloca i64, align 8
  %3 = alloca ptr, align 8
  store i64 %0, ptr %2, align 8, !tbaa !31
  call void @llvm.lifetime.start.p0(i64 8, ptr %3) #4
  %4 = load ptr, ptr getelementptr inbounds nuw (%struct._lv_global_t, ptr @lv_global, i32 0, i32 36), align 8, !tbaa !3
  %5 = load i64, ptr %2, align 8, !tbaa !31
  %6 = call ptr @lv_tlsf_malloc(ptr noundef %4, i64 noundef %5)
  store ptr %6, ptr %3, align 8, !tbaa !30
  %7 = load ptr, ptr %3, align 8, !tbaa !30
  %8 = icmp ne ptr %7, null
  br i1 %8, label %9, label %23

9:                                                ; preds = %1
  %10 = load ptr, ptr %3, align 8, !tbaa !30
  %11 = call i64 @lv_tlsf_block_size(ptr noundef %10)
  %12 = load i64, ptr getelementptr inbounds nuw (%struct.lv_tlsf_state_t, ptr getelementptr inbounds nuw (%struct._lv_global_t, ptr @lv_global, i32 0, i32 36), i32 0, i32 1), align 8, !tbaa !34
  %13 = add i64 %12, %11
  store i64 %13, ptr getelementptr inbounds nuw (%struct.lv_tlsf_state_t, ptr getelementptr inbounds nuw (%struct._lv_global_t, ptr @lv_global, i32 0, i32 36), i32 0, i32 1), align 8, !tbaa !34
  %14 = load i64, ptr getelementptr inbounds nuw (%struct.lv_tlsf_state_t, ptr getelementptr inbounds nuw (%struct._lv_global_t, ptr @lv_global, i32 0, i32 36), i32 0, i32 1), align 8, !tbaa !34
  %15 = load i64, ptr getelementptr inbounds nuw (%struct.lv_tlsf_state_t, ptr getelementptr inbounds nuw (%struct._lv_global_t, ptr @lv_global, i32 0, i32 36), i32 0, i32 2), align 8, !tbaa !35
  %16 = icmp ugt i64 %14, %15
  br i1 %16, label %17, label %19

17:                                               ; preds = %9
  %18 = load i64, ptr getelementptr inbounds nuw (%struct.lv_tlsf_state_t, ptr getelementptr inbounds nuw (%struct._lv_global_t, ptr @lv_global, i32 0, i32 36), i32 0, i32 1), align 8, !tbaa !34
  br label %21

19:                                               ; preds = %9
  %20 = load i64, ptr getelementptr inbounds nuw (%struct.lv_tlsf_state_t, ptr getelementptr inbounds nuw (%struct._lv_global_t, ptr @lv_global, i32 0, i32 36), i32 0, i32 2), align 8, !tbaa !35
  br label %21

21:                                               ; preds = %19, %17
  %22 = phi i64 [ %18, %17 ], [ %20, %19 ]
  store i64 %22, ptr getelementptr inbounds nuw (%struct.lv_tlsf_state_t, ptr getelementptr inbounds nuw (%struct._lv_global_t, ptr @lv_global, i32 0, i32 36), i32 0, i32 2), align 8, !tbaa !35
  br label %23

23:                                               ; preds = %21, %1
  %24 = load ptr, ptr %3, align 8, !tbaa !30
  call void @llvm.lifetime.end.p0(i64 8, ptr %3) #4
  ret ptr %24
}