; Function Attrs: nounwind uwtable
define ptr @lv_malloc_core(i64 noundef %0) local_unnamed_addr #0 {
  %2 = load ptr, ptr getelementptr inbounds nuw (i8, ptr @lv_global, i64 784), align 8, !tbaa !3
  %3 = tail call ptr @lv_tlsf_malloc(ptr noundef %2, i64 noundef %0) #4
  %.not = icmp eq ptr %3, null
  br i1 %.not, label %10, label %4

4:                                                ; preds = %1
  %5 = tail call i64 @lv_tlsf_block_size(ptr noundef nonnull %3) #4
  %6 = load i64, ptr getelementptr inbounds nuw (i8, ptr @lv_global, i64 792), align 8, !tbaa !33
  %7 = add i64 %6, %5
  store i64 %7, ptr getelementptr inbounds nuw (i8, ptr @lv_global, i64 792), align 8, !tbaa !33
  %8 = load i64, ptr getelementptr inbounds nuw (i8, ptr @lv_global, i64 800), align 8, !tbaa !34
  %9 = tail call i64 @llvm.umax.i64(i64 %7, i64 %8)
  store i64 %9, ptr getelementptr inbounds nuw (i8, ptr @lv_global, i64 800), align 8, !tbaa !34
  br label %10

10:                                               ; preds = %4, %1
  ret ptr %3
}